target datalayout = "e-m:e-p270:32:32-p271:32:32-p272:64:64-i64:64-i128:128-f80:128-n8:16:32:64-S128"
target triple = "x86_64-pc-linux-gnu"

; Function Attrs: mustprogress uwtable
define hidden noundef i32 @_ZN4cvc58internal6theory11quantifiers15CegInstantiator10isCbqiKindENS0_4kind6Kind_tE(i32 noundef %0) #4 align 2 {
  %2 = alloca i32, align 4
  %3 = alloca i32, align 4
  %4 = alloca i32, align 4
  %5 = alloca i32, align 4
  store i32 %0, ptr %3, align 4, !tbaa !173
  %6 = load i32, ptr %3, align 4, !tbaa !173
  %7 = call noundef zeroext i1 @_ZN4cvc58internal6theory11quantifiers8TermUtil16isBoolConnectiveENS0_4kind6Kind_tE(i32 noundef %6)
  br i1 %7, label %53, label %8

8:                                                ; preds = %1
  %9 = load i32, ptr %3, align 4, !tbaa !173
  %10 = icmp eq i32 %9, 39
  br i1 %10, label %53, label %11

11:                                               ; preds = %8
  %12 = load i32, ptr %3, align 4, !tbaa !173
  %13 = icmp eq i32 %12, 78
  br i1 %13, label %53, label %14

14:                                               ; preds = %11
  %15 = load i32, ptr %3, align 4, !tbaa !173
  %16 = icmp eq i32 %15, 5
  br i1 %16, label %53, label %17

17:                                               ; preds = %14
  %18 = load i32, ptr %3, align 4, !tbaa !173
  %19 = icmp eq i32 %18, 40
  br i1 %19, label %53, label %20

20:                                               ; preds = %17
  %21 = load i32, ptr %3, align 4, !tbaa !173
  %22 = icmp eq i32 %21, 41
  br i1 %22, label %53, label %23

23:                                               ; preds = %20
  %24 = load i32, ptr %3, align 4, !tbaa !173
  %25 = icmp eq i32 %24, 44
  br i1 %25, label %53, label %26

26:                                               ; preds = %23
  %27 = load i32, ptr %3, align 4, !tbaa !173
  %28 = icmp eq i32 %27, 45
  br i1 %28, label %53, label %29

29:                                               ; preds = %26
  %30 = load i32, ptr %3, align 4, !tbaa !173
  %31 = icmp eq i32 %30, 46
  br i1 %31, label %53, label %32

32:                                               ; preds = %29
  %33 = load i32, ptr %3, align 4, !tbaa !173
  %34 = icmp eq i32 %33, 47
  br i1 %34, label %53, label %35

35:                                               ; preds = %32
  %36 = load i32, ptr %3, align 4, !tbaa !173
  %37 = icmp eq i32 %36, 48
  br i1 %37, label %53, label %38

38:                                               ; preds = %35
  %39 = load i32, ptr %3, align 4, !tbaa !173
  %40 = icmp eq i32 %39, 49
  br i1 %40, label %53, label %41

41:                                               ; preds = %38
  %42 = load i32, ptr %3, align 4, !tbaa !173
  %43 = icmp eq i32 %42, 82
  br i1 %43, label %53, label %44

44:                                               ; preds = %41
  %45 = load i32, ptr %3, align 4, !tbaa !173
  %46 = icmp eq i32 %45, 81
  br i1 %46, label %53, label %47

47:                                               ; preds = %44
  %48 = load i32, ptr %3, align 4, !tbaa !173
  %49 = icmp eq i32 %48, 83
  br i1 %49, label %53, label %50

50:                                               ; preds = %47
  %51 = load i32, ptr %3, align 4, !tbaa !173
  %52 = icmp eq i32 %51, 50
  br i1 %52, label %53, label %54

53:                                               ; preds = %50, %47, %44, %41, %38, %35, %32, %29, %26, %23, %20, %17, %14, %11, %8, %1
  store i32 2, ptr %2, align 4
  br label %71

54:                                               ; preds = %50
  call void @llvm.lifetime.start.p0(i64 4, ptr %4) #3
  %55 = load i32, ptr %3, align 4, !tbaa !173
  %56 = call noundef i32 @_ZN4cvc58internal6theory14kindToTheoryIdENS0_4kind6Kind_tE(i32 noundef %55)
  store i32 %56, ptr %4, align 4, !tbaa !193
  %57 = load i32, ptr %4, align 4, !tbaa !193
  %58 = icmp eq i32 %57, 4
  br i1 %58, label %68, label %59

59:                                               ; preds = %54
  %60 = load i32, ptr %4, align 4, !tbaa !193
  %61 = icmp eq i32 %60, 6
  br i1 %61, label %68, label %62

62:                                               ; preds = %59
  %63 = load i32, ptr %4, align 4, !tbaa !193
  %64 = icmp eq i32 %63, 8
  br i1 %64, label %68, label %65

65:                                               ; preds = %62
  %66 = load i32, ptr %4, align 4, !tbaa !193
  %67 = icmp eq i32 %66, 1
  br i1 %67, label %68, label %69

68:                                               ; preds = %65, %62, %59, %54
  store i32 2, ptr %2, align 4
  store i32 1, ptr %5, align 4
  br label %70

69:                                               ; preds = %65
  store i32 0, ptr %2, align 4
  store i32 1, ptr %5, align 4
  br label %70

70:                                               ; preds = %69, %68
  call void @llvm.lifetime.end.p0(i64 4, ptr %4) #3
  br label %71

71:                                               ; preds = %70, %53
  %72 = load i32, ptr %2, align 4
  ret i32 %72
}