; Function Attrs: mustprogress uwtable
define hidden noundef range(i32 0, 3) i32 @_ZN4cvc58internal6theory11quantifiers15CegInstantiator10isCbqiKindENS0_4kind6Kind_tE(i32 noundef %0) local_unnamed_addr #3 align 2 {
  %2 = tail call noundef zeroext i1 @_ZN4cvc58internal6theory11quantifiers8TermUtil16isBoolConnectiveENS0_4kind6Kind_tE(i32 noundef %0)
  br i1 %2, label %7, label %switch.early.test

switch.early.test:                                ; preds = %1
  switch i32 %0, label %3 [
    i32 83, label %7
    i32 82, label %7
    i32 81, label %7
    i32 78, label %7
    i32 50, label %7
    i32 49, label %7
    i32 48, label %7
    i32 47, label %7
    i32 46, label %7
    i32 45, label %7
    i32 44, label %7
    i32 41, label %7
    i32 40, label %7
    i32 39, label %7
    i32 5, label %7
  ]

3:                                                ; preds = %switch.early.test
  %4 = tail call noundef i32 @_ZN4cvc58internal6theory14kindToTheoryIdENS0_4kind6Kind_tE(i32 noundef %0)
  %switch.tableidx = add i32 %4, -1
  %5 = icmp ult i32 %switch.tableidx, 8
  br i1 %5, label %switch.lookup, label %7

switch.lookup:                                    ; preds = %3
  %6 = zext nneg i32 %switch.tableidx to i64
  %switch.gep = getelementptr inbounds nuw [8 x i32], ptr @switch.table._ZN4cvc58internal6theory11quantifiers15CegInstantiator10isCbqiKindENS0_4kind6Kind_tE, i64 0, i64 %6
  %switch.load = load i32, ptr %switch.gep, align 4
  br label %7

7:                                                ; preds = %3, %switch.lookup, %1, %switch.early.test, %switch.early.test, %switch.early.test, %switch.early.test, %switch.early.test, %switch.early.test, %switch.early.test, %switch.early.test, %switch.early.test, %switch.early.test, %switch.early.test, %switch.early.test, %switch.early.test, %switch.early.test, %switch.early.test
  %.0 = phi i32 [ 2, %switch.early.test ], [ 2, %switch.early.test ], [ 2, %switch.early.test ], [ 2, %switch.early.test ], [ 2, %switch.early.test ], [ 2, %switch.early.test ], [ 2, %switch.early.test ], [ 2, %switch.early.test ], [ 2, %switch.early.test ], [ 2, %switch.early.test ], [ 2, %switch.early.test ], [ 2, %switch.early.test ], [ 2, %switch.early.test ], [ 2, %switch.early.test ], [ 2, %switch.early.test ], [ 2, %1 ], [ %switch.load, %switch.lookup ], [ 0, %3 ]
  ret i32 %.0
}